; Function Attrs: mustprogress uwtable
define noundef nonnull ptr @_ZNK3gmx13BooleanOption13createStorageERKNS_22OptionManagerContainerE(ptr noundef nonnull align 8 dereferenceable(88) %0, ptr nonnull readnone align 1 captures(none) %1) unnamed_addr #2 align 2 personality ptr @__gxx_personality_v0 {
  %3 = tail call noalias noundef nonnull dereferenceable(232) ptr @_Znwm(i64 noundef 232) #29
  invoke void @_ZN3gmx21OptionStorageTemplateIbEC2INS_13BooleanOptionEEERKNS_14OptionTemplateIbT_EENS_13FlagsTemplateINS_10OptionFlagEEE(ptr noundef nonnull align 8 dereferenceable(232) %3, ptr noundef nonnull align 8 dereferenceable(88) %0, i64 0)
          to label %.noexc unwind label %13

.noexc:                                           ; preds = %2
  %4 = getelementptr inbounds nuw i8, ptr %3, i64 168
  store i32 0, ptr %4, align 8, !tbaa !34
  %5 = getelementptr inbounds nuw i8, ptr %3, i64 176
  store ptr null, ptr %5, align 8, !tbaa !39
  %6 = getelementptr inbounds nuw i8, ptr %3, i64 184
  store ptr %4, ptr %6, align 8, !tbaa !40
  %7 = getelementptr inbounds nuw i8, ptr %3, i64 192
  store ptr %4, ptr %7, align 8, !tbaa !41
  %8 = getelementptr inbounds nuw i8, ptr %3, i64 200
  store i64 0, ptr %8, align 8, !tbaa !42
  %9 = getelementptr inbounds nuw i8, ptr %3, i64 208
  store i8 0, ptr %9, align 8, !tbaa !43
  store ptr getelementptr inbounds nuw inrange(-16, 144) (i8, ptr @_ZTVN3gmx20BooleanOptionStorageE, i64 16), ptr %3, align 8, !tbaa !27
  %10 = getelementptr inbounds nuw i8, ptr %3, i64 216
  invoke void @_ZN3gmx17BooleanOptionInfoC1EPNS_20BooleanOptionStorageE(ptr noundef nonnull align 8 dereferenceable(16) %10, ptr noundef nonnull align 8 dereferenceable(232) %3)
          to label %_ZN3gmx20BooleanOptionStorageC2ERKNS_13BooleanOptionE.exit unwind label %11

11:                                               ; preds = %.noexc
  %12 = landingpad { ptr, i32 }
          cleanup
  tail call void @_ZN3gmx27OptionStorageTemplateSimpleIbED2Ev(ptr noundef nonnull align 8 dereferenceable(232) %3) #28
  br label %.body

_ZN3gmx20BooleanOptionStorageC2ERKNS_13BooleanOptionE.exit: ; preds = %.noexc
  ret ptr %3

13:                                               ; preds = %2
  %14 = landingpad { ptr, i32 }
          cleanup
  br label %.body

.body:                                            ; preds = %11, %13
  %eh.lpad-body = phi { ptr, i32 } [ %14, %13 ], [ %12, %11 ]
  tail call void @_ZdlPvm(ptr noundef nonnull %3, i64 noundef 232) #30
  resume { ptr, i32 } %eh.lpad-body
}